V@media -sass-debug-info{filename{}line{font-family:\u005c000033}}\u000ahtml,\u000abody {\u000a  font-family: "Fira Sans", sans-serif;\u000a  font-weight: 300;\u000a  width: 860px;\u000a  margin: auto;\u000a}\u000a\u000a@media -sass-debug-info{filename{}line{font-family:\u005c0000310}}\u000acode,\u000apre {\u000a  font-family: "Fira Mono", monospace;\u000a}\u000a
p1
.